target datalayout = "e-m:e-p270:32:32-p271:32:32-p272:64:64-i64:64-i128:128-f80:128-n8:16:32:64-S128"
target triple = "x86_64-pc-linux-gnu"

%"struct.rocksdb::ThreadPoolImpl::Impl" = type { i8, i32, i32, ptr, i32, %"struct.std::atomic", i32, i32, i8, i8, %"class.std::deque", %"class.std::mutex", %"class.std::condition_variable", %"class.std::vector" }
%"struct.std::atomic" = type { %"struct.std::__atomic_base" }
%"struct.std::__atomic_base" = type { i32 }
%"class.std::deque" = type { %"class.std::_Deque_base" }
%"class.std::_Deque_base" = type { %"struct.std::_Deque_base<rocksdb::ThreadPoolImpl::Impl::BGItem, std::allocator<rocksdb::ThreadPoolImpl::Impl::BGItem>>::_Deque_impl" }
%"struct.std::_Deque_base<rocksdb::ThreadPoolImpl::Impl::BGItem, std::allocator<rocksdb::ThreadPoolImpl::Impl::BGItem>>::_Deque_impl" = type { %"struct.std::_Deque_base<rocksdb::ThreadPoolImpl::Impl::BGItem, std::allocator<rocksdb::ThreadPoolImpl::Impl::BGItem>>::_Deque_impl_data" }
%"struct.std::_Deque_base<rocksdb::ThreadPoolImpl::Impl::BGItem, std::allocator<rocksdb::ThreadPoolImpl::Impl::BGItem>>::_Deque_impl_data" = type { ptr, i64, %"struct.std::_Deque_iterator", %"struct.std::_Deque_iterator" }
%"struct.std::_Deque_iterator" = type { ptr, ptr, ptr, ptr }
%"class.std::mutex" = type { %"class.std::__mutex_base" }
%"class.std::__mutex_base" = type { %union.pthread_mutex_t }
%union.pthread_mutex_t = type { %struct.__pthread_mutex_s }
%struct.__pthread_mutex_s = type { i32, i32, i32, i32, i32, i16, i16, %struct.__pthread_internal_list }
%struct.__pthread_internal_list = type { ptr, ptr }
%"class.std::condition_variable" = type { %"class.std::__condvar" }
%"class.std::__condvar" = type { %union.pthread_cond_t }
%union.pthread_cond_t = type { %struct.__pthread_cond_s }
%struct.__pthread_cond_s = type { %union.__atomic_wide_counter, %union.__atomic_wide_counter, [2 x i32], [2 x i32], i32, i32, [2 x i32] }
%union.__atomic_wide_counter = type { i64 }
%"class.std::vector" = type { %"struct.std::_Vector_base" }
%"struct.std::_Vector_base" = type { %"struct.std::_Vector_base<std::thread, std::allocator<std::thread>>::_Vector_impl" }
%"struct.std::_Vector_base<std::thread, std::allocator<std::thread>>::_Vector_impl" = type { %"struct.std::_Vector_base<std::thread, std::allocator<std::thread>>::_Vector_impl_data" }
%"struct.std::_Vector_base<std::thread, std::allocator<std::thread>>::_Vector_impl_data" = type { ptr, ptr, ptr }
%"struct.rocksdb::BGThreadMetadata" = type { ptr, i64 }

; Function Attrs: mustprogress nounwind uwtable
define linkonce_odr noundef ptr @_ZNK7rocksdb14ThreadPoolImpl4Impl10GetHostEnvEv(ptr noundef nonnull align 8 dereferenceable(240) %0) #2 comdat align 2 {
  %2 = alloca ptr, align 8
  store ptr %0, ptr %2, align 8, !tbaa !40
  %3 = load ptr, ptr %2, align 8
  %4 = getelementptr inbounds nuw %"struct.rocksdb::ThreadPoolImpl::Impl", ptr %3, i32 0, i32 3
  %5 = load ptr, ptr %4, align 8, !tbaa !123
  ret ptr %5
}

; Function Attrs: mustprogress nounwind uwtable
define linkonce_odr noundef i32 @_ZNK7rocksdb14ThreadPoolImpl4Impl17GetThreadPriorityEv(ptr noundef nonnull align 8 dereferenceable(240) %0) #2 comdat align 2 {
  %2 = alloca ptr, align 8
  store ptr %0, ptr %2, align 8, !tbaa !40
  %3 = load ptr, ptr %2, align 8
  %4 = getelementptr inbounds nuw %"struct.rocksdb::ThreadPoolImpl::Impl", ptr %3, i32 0, i32 2
  %5 = load i32, ptr %4, align 8, !tbaa !122
  ret i32 %5
}

; Function Attrs: mustprogress uwtable
define void @_ZN7rocksdb14ThreadPoolImpl4Impl15BGThreadWrapperEPv(ptr noundef %0) #3 align 2 {
  %2 = alloca ptr, align 8
  %3 = alloca ptr, align 8
  %4 = alloca i64, align 8
  %5 = alloca ptr, align 8
  %6 = alloca i32, align 4
  %7 = alloca i32, align 4
  store ptr %0, ptr %2, align 8, !tbaa !21
  call void @llvm.lifetime.start.p0(i64 8, ptr %3) #5
  %8 = load ptr, ptr %2, align 8, !tbaa !21
  store ptr %8, ptr %3, align 8, !tbaa !115
  call void @llvm.lifetime.start.p0(i64 8, ptr %4) #5
  %9 = load ptr, ptr %3, align 8, !tbaa !115
  %10 = getelementptr inbounds nuw %"struct.rocksdb::BGThreadMetadata", ptr %9, i32 0, i32 1
  %11 = load i64, ptr %10, align 8, !tbaa !117
  store i64 %11, ptr %4, align 8, !tbaa !89
  call void @llvm.lifetime.start.p0(i64 8, ptr %5) #5
  %12 = load ptr, ptr %3, align 8, !tbaa !115
  %13 = getelementptr inbounds nuw %"struct.rocksdb::BGThreadMetadata", ptr %12, i32 0, i32 0
  %14 = load ptr, ptr %13, align 8, !tbaa !119
  store ptr %14, ptr %5, align 8, !tbaa !40
  call void @llvm.lifetime.start.p0(i64 4, ptr %6) #5
  store i32 4, ptr %6, align 4, !tbaa !120
  %15 = load ptr, ptr %5, align 8, !tbaa !40
  %16 = call noundef i32 @_ZNK7rocksdb14ThreadPoolImpl4Impl17GetThreadPriorityEv(ptr noundef nonnull align 8 dereferenceable(240) %15)
  switch i32 %16, label %22 [
    i32 2, label %17
    i32 1, label %18
    i32 0, label %19
    i32 3, label %20
    i32 4, label %21
  ]

17:                                               ; preds = %1
  store i32 0, ptr %6, align 4, !tbaa !120
  br label %22

18:                                               ; preds = %1
  store i32 1, ptr %6, align 4, !tbaa !120
  br label %22

19:                                               ; preds = %1
  store i32 3, ptr %6, align 4, !tbaa !120
  br label %22

20:                                               ; preds = %1
  store i32 2, ptr %6, align 4, !tbaa !120
  br label %22

21:                                               ; preds = %1
  store i32 1, ptr %7, align 4
  br label %32

22:                                               ; preds = %1, %20, %19, %18, %17
  %23 = load ptr, ptr %5, align 8, !tbaa !40
  %24 = call noundef ptr @_ZNK7rocksdb14ThreadPoolImpl4Impl10GetHostEnvEv(ptr noundef nonnull align 8 dereferenceable(240) %23)
  %25 = load i32, ptr %6, align 4, !tbaa !120
  call void @_ZN7rocksdb16ThreadStatusUtil14RegisterThreadEPKNS_3EnvENS_12ThreadStatus10ThreadTypeE(ptr noundef %24, i32 noundef %25)
  %26 = load ptr, ptr %3, align 8, !tbaa !115
  %27 = icmp eq ptr %26, null
  br i1 %27, label %29, label %28

28:                                               ; preds = %22
  call void @_ZdlPvm(ptr noundef %26, i64 noundef 16) #23
  br label %29

29:                                               ; preds = %28, %22
  %30 = load ptr, ptr %5, align 8, !tbaa !40
  %31 = load i64, ptr %4, align 8, !tbaa !89
  call void @_ZN7rocksdb14ThreadPoolImpl4Impl8BGThreadEm(ptr noundef nonnull align 8 dereferenceable(240) %30, i64 noundef %31)
  call void @_ZN7rocksdb16ThreadStatusUtil16UnregisterThreadEv()
  store i32 1, ptr %7, align 4
  br label %32

32:                                               ; preds = %29, %21
  call void @llvm.lifetime.end.p0(i64 4, ptr %6) #5
  call void @llvm.lifetime.end.p0(i64 8, ptr %5) #5
  call void @llvm.lifetime.end.p0(i64 8, ptr %4) #5
  call void @llvm.lifetime.end.p0(i64 8, ptr %3) #5
  ret void
}