; Function Attrs: mustprogress uwtable
define void @_ZN7rocksdb14ThreadPoolImpl4Impl15BGThreadWrapperEPv(ptr noundef %0) #3 align 2 {
  %2 = getelementptr inbounds nuw i8, ptr %0, i64 8
  %3 = load i64, ptr %2, align 8, !tbaa !78
  %4 = load ptr, ptr %0, align 8, !tbaa !81
  %5 = getelementptr inbounds nuw i8, ptr %4, i64 8
  %6 = load i32, ptr %5, align 8, !tbaa !82
  switch i32 %6, label %11 [
    i32 2, label %7
    i32 1, label %8
    i32 0, label %9
    i32 3, label %10
    i32 4, label %14
  ]

7:                                                ; preds = %1
  br label %11

8:                                                ; preds = %1
  br label %11

9:                                                ; preds = %1
  br label %11

10:                                               ; preds = %1
  br label %11

11:                                               ; preds = %10, %9, %8, %7, %1
  %.0 = phi i32 [ 4, %1 ], [ 2, %10 ], [ 3, %9 ], [ 1, %8 ], [ 0, %7 ]
  %12 = getelementptr inbounds nuw i8, ptr %4, i64 16
  %13 = load ptr, ptr %12, align 8, !tbaa !83
  tail call void @_ZN7rocksdb16ThreadStatusUtil14RegisterThreadEPKNS_3EnvENS_12ThreadStatus10ThreadTypeE(ptr noundef %13, i32 noundef %.0)
  tail call void @_ZdlPvm(ptr noundef nonnull %0, i64 noundef 16) #25
  tail call void @_ZN7rocksdb14ThreadPoolImpl4Impl8BGThreadEm(ptr noundef nonnull align 8 dereferenceable(240) %4, i64 noundef %3)
  tail call void @_ZN7rocksdb16ThreadStatusUtil16UnregisterThreadEv()
  br label %14

14:                                               ; preds = %1, %11
  ret void
}